target datalayout = "e-m:e-p270:32:32-p271:32:32-p272:64:64-i64:64-i128:128-f80:128-n8:16:32:64-S128"
target triple = "x86_64-pc-linux-gnu"

@test_rsa_simple.ptext_ex = internal global [9 x i8] c"T\85\9B4,I\EA*\00", align 1
@.str.5 = private unnamed_addr constant [27 x i8] c"../openssl/test/rsa_test.c\00", align 1
@.str.6 = private unnamed_addr constant [4 x i8] c"num\00", align 1
@.str.7 = private unnamed_addr constant [8 x i8] c"clentmp\00", align 1
@.str.8 = private unnamed_addr constant [2 x i8] c"0\00", align 1
@.str.9 = private unnamed_addr constant [6 x i8] c"ptext\00", align 1
@.str.10 = private unnamed_addr constant [9 x i8] c"ptext_ex\00", align 1
@key1.n = internal global [66 x i8] c"\00\AA6\AB\CE\88\AC\FD\FFUR<\7F\C4R?\90\EF\A0\0D\F3wJ%\9F.b\B4\C5\D9\9C\B5\AD\B3\00\A0(^S\01\93\0E\0Cp\FBhv\93\9C\E6\16\CEbJ\11\E0\08m4\1E\BC\AC\A0\A1\F5\00", align 16
@key1.e = internal global [2 x i8] c"\11\00", align 1
@key1.d = internal global [65 x i8] c"\0A\037Hbd\87i__0\BC8\B9\8BD\C2\CD-\FFC@\98\CD \D8\A18\D0\90\BFdy|?\A7\A2\CD\CB<\D1\E0\BD\BA&T\B4\F9\DF\8E\8A\E5\9Ds=\9F3\B3\01bJ\FD\1DQ\00", align 16
@key1.p = internal global [34 x i8] c"\00\D8@\B4\16f\B4.\92\EA\0D\A3\B42\04\B5\CF\CE3RRM\04\16\A5\A4A\E7\00\AFF\12\0D\00", align 16
@key1.q = internal global [34 x i8] c"\00\C9\7F\B1\F0'\F4S\F64\123\EA\AA\D1\D95?lB\D0\88f\B1\D0Z\0F 5\02\8B\9D\89\00", align 16
@key1.dmp1 = internal global [33 x i8] c"Y\0B\95r\A2\C2\A9\C4\06\05\9D\C2\AB/\1D\AF\EB~\8BO\10\A7T\9E\8E\ED\F5\B4\FC\E0\9E\05\00", align 16
@key1.dmq1 = internal global [34 x i8] c"\00\8E<\05!\FE\15\E0\EA\06\A3o\F0\F1\0C\99R\C3[zu\14\FD28\B8\0A\ADR\98b\8DQ\00", align 16
@key1.iqmp = internal global [33 x i8] c"6?\F7\18\9D\A8\E9\0B\1D4\1Fq\D0\9Bv\A8\A9C\E1\1D\10\B2M$\9F-\EA\FE\F8\0C\18&\00", align 16
@key1.ctext_ex = internal global [65 x i8] c"\1B\8F\05\F9\CA\1AyRnS\F3\CCQO\DB\89+\FB\91\93#\1Ex\B9\92\E6\8DP\A4\80\CBR3\89\\t\95\8D]\02\AB\8C\0F\D0@\EBXD\B0\05\C3\9E\D8'J\9D\BF\A8\06q@\949\D2\00", align 16
@key2.n = internal global [52 x i8] c"\00\A3\07\9A\90\DF\0D\FDr\AC\09\0C\CC*x\B8t\13\13>@u\9C\98\FA\F8 O5\8A\0B&<gp\E7\83\A9;iq\B77y\D2q{\E84w\CF\00", align 16
@key2.e = internal global [2 x i8] c"\03\00", align 1
@key2.d = internal global [51 x i8] c"l\AF\BC`\94\B3\FELr\B0\B32\C6\FB%\A2\B7b)\80Nhe\FC\A4Zt\DF\0F\8F\B8A;R\C0\D0\E5=\9BY\0F\F1\9B\E7\9FI\DD!\E5\EB\00", align 16
@key2.p = internal global [27 x i8] c"\00\CF 5\02\8B\9D\86\98@\B4\16f\B4.\92\EA\0D\A3\B42\04\B5\CF\CE\91\00", align 16
@key2.q = internal global [27 x i8] c"\00\C9\7F\B1\F0'\F4S\F64\123\EA\AA\D1\D95?lB\D0\88f\B1\D0_\00", align 16
@key2.dmp1 = internal global [27 x i8] c"\00\8A\15x\AC]\13\AF\10+\22\B9\99\CDta\F1^m\22\CC\03#\DF\DF\0B\00", align 16
@key2.dmq1 = internal global [27 x i8] c"\00\86U!J\C5M\8DN\CDaw\F1\C76\90\CE*H,\8B\05\99\CB\E0?\00", align 16
@key2.iqmp = internal global [27 x i8] c"\00\83\EF\EF\B8\A9\A4\0D\1D\B6\ED\98\AD\84\ED\135\DC\C1\08\F3\22\D0W\CF\8D\00", align 16
@key2.ctext_ex = internal global [51 x i8] c"\14\BD\DD(\C9\835\19#\80\E8\E5I\B1X*\8B@\B4Hm\03\A6\A51\1F\1F\D5\F0\A1\80\E4\17S\03)\A94\90t\B1R\13T)\08$RbQ\00", align 16
@key3.e = internal global [2 x i8] c"\11\00", align 1
@key3.p = internal global [66 x i8] c"\00\EE\CF\AE\81\B1\B9\B3\C9\08\81\0B\10\A1\B5`\01\99\EB\9FD\AE\F4\FD\A4\93\B8\1A\9E=\84\F62\12N\F0#n]\1E;~(\FA\E7\AA\04\0A-[%!vE\9D\1F9uA\BA*X\FBe\99\00", align 16
@key3.q = internal global [66 x i8] c"\00\C9\7F\B1\F0'\F4S\F64\123\EA\AA\D1\D95?lB\D0\88f\B1\D0Z\0F 5\02\8B\9D\86\98@\B4\16f\B4.\92\EA\0D\A3\B42\04\B5\CF\CE3RRM\04\16\A5\A4A\E7\00\AFF\15\03\00", align 16
@key3.dmp1 = internal global [65 x i8] c"TIL\A6>\BA\037\E4\E2@#\FC\D6\9AZ\EB\07\DD\DC\01\83\A4\D0\AC\9BT\B0Q\F2\B1>\D9I\09u\EA\B7t\14\FFY\C1\F7i.\9A. +8\FC\91\0AGAt\AD\C9<\1Fg\C9\81\00", align 16
@key3.dmq1 = internal global [65 x i8] c"G\1E\02\90\FF\0A\F0u\03Q\B7\F8x\86L\A9a\AD\BD:\8A~\99\1C\\\05V\A9L1F\A7\F9\80?\8Fo\8A\E3B\E91\FD\8A\E4z\22\0D\1B\99\A4\95\84\98\07\FE9\F9$Z\986\DA=\00", align 16
@key3.iqmp = internal global [66 x i8] c"\00\B0lO\DA\BBc\01\19\8D&[\DB\AE\94#\B3\80\F2q\F74S\88P\93\07\7F\CD9\E2\11\9F\C9\862\15OX\83\B1g\A9g\BF@+N\9E.\0F\96V\E6\98\EA6f\ED\FB%y\809\F7\00", align 16

; Function Attrs: nounwind uwtable
define internal i32 @key3(ptr noundef %0, ptr noundef %1) #0 {
  %3 = alloca ptr, align 8
  %4 = alloca ptr, align 8
  store ptr %0, ptr %3, align 8, !tbaa !8
  store ptr %1, ptr %4, align 8, !tbaa !28
  %5 = load ptr, ptr %3, align 8, !tbaa !8
  %6 = call ptr @BN_bin2bn(ptr noundef @key3.n, i32 noundef 129, ptr noundef null)
  %7 = call ptr @BN_bin2bn(ptr noundef @key3.e, i32 noundef 1, ptr noundef null)
  %8 = call ptr @BN_bin2bn(ptr noundef @key3.d, i32 noundef 129, ptr noundef null)
  %9 = call i32 @RSA_set0_key(ptr noundef %5, ptr noundef %6, ptr noundef %7, ptr noundef %8)
  %10 = load ptr, ptr %3, align 8, !tbaa !8
  %11 = call ptr @BN_bin2bn(ptr noundef @key3.p, i32 noundef 65, ptr noundef null)
  %12 = call ptr @BN_bin2bn(ptr noundef @key3.q, i32 noundef 65, ptr noundef null)
  %13 = call i32 @RSA_set0_factors(ptr noundef %10, ptr noundef %11, ptr noundef %12)
  %14 = load ptr, ptr %3, align 8, !tbaa !8
  %15 = call ptr @BN_bin2bn(ptr noundef @key3.dmp1, i32 noundef 64, ptr noundef null)
  %16 = call ptr @BN_bin2bn(ptr noundef @key3.dmq1, i32 noundef 64, ptr noundef null)
  %17 = call ptr @BN_bin2bn(ptr noundef @key3.iqmp, i32 noundef 65, ptr noundef null)
  %18 = call i32 @RSA_set0_crt_params(ptr noundef %14, ptr noundef %15, ptr noundef %16, ptr noundef %17)
  %19 = load ptr, ptr %4, align 8, !tbaa !28
  %20 = icmp ne ptr %19, null
  br i1 %20, label %21, label %23

21:                                               ; preds = %2
  %22 = load ptr, ptr %4, align 8, !tbaa !28
  call void @llvm.memcpy.p0.p0.i64(ptr align 1 %22, ptr align 16 @key3.ctext_ex, i64 128, i1 false)
  br label %23

23:                                               ; preds = %21, %2
  ret i32 128
}

; Function Attrs: nounwind uwtable
define internal i32 @key2(ptr noundef %0, ptr noundef %1) #0 {
  %3 = alloca ptr, align 8
  %4 = alloca ptr, align 8
  store ptr %0, ptr %3, align 8, !tbaa !8
  store ptr %1, ptr %4, align 8, !tbaa !28
  %5 = load ptr, ptr %3, align 8, !tbaa !8
  %6 = call ptr @BN_bin2bn(ptr noundef @key2.n, i32 noundef 51, ptr noundef null)
  %7 = call ptr @BN_bin2bn(ptr noundef @key2.e, i32 noundef 1, ptr noundef null)
  %8 = call ptr @BN_bin2bn(ptr noundef @key2.d, i32 noundef 50, ptr noundef null)
  %9 = call i32 @RSA_set0_key(ptr noundef %5, ptr noundef %6, ptr noundef %7, ptr noundef %8)
  %10 = load ptr, ptr %3, align 8, !tbaa !8
  %11 = call ptr @BN_bin2bn(ptr noundef @key2.p, i32 noundef 26, ptr noundef null)
  %12 = call ptr @BN_bin2bn(ptr noundef @key2.q, i32 noundef 26, ptr noundef null)
  %13 = call i32 @RSA_set0_factors(ptr noundef %10, ptr noundef %11, ptr noundef %12)
  %14 = load ptr, ptr %3, align 8, !tbaa !8
  %15 = call ptr @BN_bin2bn(ptr noundef @key2.dmp1, i32 noundef 26, ptr noundef null)
  %16 = call ptr @BN_bin2bn(ptr noundef @key2.dmq1, i32 noundef 26, ptr noundef null)
  %17 = call ptr @BN_bin2bn(ptr noundef @key2.iqmp, i32 noundef 26, ptr noundef null)
  %18 = call i32 @RSA_set0_crt_params(ptr noundef %14, ptr noundef %15, ptr noundef %16, ptr noundef %17)
  %19 = load ptr, ptr %4, align 8, !tbaa !28
  %20 = icmp ne ptr %19, null
  br i1 %20, label %21, label %23

21:                                               ; preds = %2
  %22 = load ptr, ptr %4, align 8, !tbaa !28
  call void @llvm.memcpy.p0.p0.i64(ptr align 1 %22, ptr align 16 @key2.ctext_ex, i64 50, i1 false)
  br label %23

23:                                               ; preds = %21, %2
  ret i32 50
}

; Function Attrs: nounwind uwtable
define internal i32 @key1(ptr noundef %0, ptr noundef %1) #0 {
  %3 = alloca ptr, align 8
  %4 = alloca ptr, align 8
  store ptr %0, ptr %3, align 8, !tbaa !8
  store ptr %1, ptr %4, align 8, !tbaa !28
  %5 = load ptr, ptr %3, align 8, !tbaa !8
  %6 = call ptr @BN_bin2bn(ptr noundef @key1.n, i32 noundef 65, ptr noundef null)
  %7 = call ptr @BN_bin2bn(ptr noundef @key1.e, i32 noundef 1, ptr noundef null)
  %8 = call ptr @BN_bin2bn(ptr noundef @key1.d, i32 noundef 64, ptr noundef null)
  %9 = call i32 @RSA_set0_key(ptr noundef %5, ptr noundef %6, ptr noundef %7, ptr noundef %8)
  %10 = load ptr, ptr %3, align 8, !tbaa !8
  %11 = call ptr @BN_bin2bn(ptr noundef @key1.p, i32 noundef 33, ptr noundef null)
  %12 = call ptr @BN_bin2bn(ptr noundef @key1.q, i32 noundef 33, ptr noundef null)
  %13 = call i32 @RSA_set0_factors(ptr noundef %10, ptr noundef %11, ptr noundef %12)
  %14 = load ptr, ptr %3, align 8, !tbaa !8
  %15 = call ptr @BN_bin2bn(ptr noundef @key1.dmp1, i32 noundef 32, ptr noundef null)
  %16 = call ptr @BN_bin2bn(ptr noundef @key1.dmq1, i32 noundef 33, ptr noundef null)
  %17 = call ptr @BN_bin2bn(ptr noundef @key1.iqmp, i32 noundef 32, ptr noundef null)
  %18 = call i32 @RSA_set0_crt_params(ptr noundef %14, ptr noundef %15, ptr noundef %16, ptr noundef %17)
  %19 = load ptr, ptr %4, align 8, !tbaa !28
  %20 = icmp ne ptr %19, null
  br i1 %20, label %21, label %23

21:                                               ; preds = %2
  %22 = load ptr, ptr %4, align 8, !tbaa !28
  call void @llvm.memcpy.p0.p0.i64(ptr align 1 %22, ptr align 16 @key1.ctext_ex, i64 64, i1 false)
  br label %23

23:                                               ; preds = %21, %2
  ret i32 64
}

; Function Attrs: nounwind uwtable
define internal i32 @rsa_setkey(ptr noundef %0, ptr noundef %1, i32 noundef %2) #0 {
  %4 = alloca ptr, align 8
  %5 = alloca ptr, align 8
  %6 = alloca i32, align 4
  %7 = alloca i32, align 4
  store ptr %0, ptr %4, align 8, !tbaa !32
  store ptr %1, ptr %5, align 8, !tbaa !28
  store i32 %2, ptr %6, align 4, !tbaa !4
  call void @llvm.lifetime.start.p0(i64 4, ptr %7) #5
  store i32 0, ptr %7, align 4, !tbaa !4
  %8 = call ptr @RSA_new()
  %9 = load ptr, ptr %4, align 8, !tbaa !32
  store ptr %8, ptr %9, align 8, !tbaa !8
  %10 = load ptr, ptr %4, align 8, !tbaa !32
  %11 = load ptr, ptr %10, align 8, !tbaa !8
  %12 = icmp ne ptr %11, null
  br i1 %12, label %13, label %31

13:                                               ; preds = %3
  %14 = load i32, ptr %6, align 4, !tbaa !4
  switch i32 %14, label %30 [
    i32 0, label %15
    i32 1, label %20
    i32 2, label %25
  ]

15:                                               ; preds = %13
  %16 = load ptr, ptr %4, align 8, !tbaa !32
  %17 = load ptr, ptr %16, align 8, !tbaa !8
  %18 = load ptr, ptr %5, align 8, !tbaa !28
  %19 = call i32 @key1(ptr noundef %17, ptr noundef %18)
  store i32 %19, ptr %7, align 4, !tbaa !4
  br label %30

20:                                               ; preds = %13
  %21 = load ptr, ptr %4, align 8, !tbaa !32
  %22 = load ptr, ptr %21, align 8, !tbaa !8
  %23 = load ptr, ptr %5, align 8, !tbaa !28
  %24 = call i32 @key2(ptr noundef %22, ptr noundef %23)
  store i32 %24, ptr %7, align 4, !tbaa !4
  br label %30

25:                                               ; preds = %13
  %26 = load ptr, ptr %4, align 8, !tbaa !32
  %27 = load ptr, ptr %26, align 8, !tbaa !8
  %28 = load ptr, ptr %5, align 8, !tbaa !28
  %29 = call i32 @key3(ptr noundef %27, ptr noundef %28)
  store i32 %29, ptr %7, align 4, !tbaa !4
  br label %30

30:                                               ; preds = %13, %25, %20, %15
  br label %31

31:                                               ; preds = %30, %3
  %32 = load i32, ptr %7, align 4, !tbaa !4
  call void @llvm.lifetime.end.p0(i64 4, ptr %7) #5
  ret i32 %32
}

; Function Attrs: nounwind uwtable
define internal i32 @test_rsa_simple(i32 noundef %0, i32 noundef %1, i32 noundef %2, i32 noundef %3, ptr noundef %4, ptr noundef %5, ptr noundef %6) #0 {
  %8 = alloca i32, align 4
  %9 = alloca i32, align 4
  %10 = alloca i32, align 4
  %11 = alloca i32, align 4
  %12 = alloca ptr, align 8
  %13 = alloca ptr, align 8
  %14 = alloca ptr, align 8
  %15 = alloca i32, align 4
  %16 = alloca ptr, align 8
  %17 = alloca [256 x i8], align 16
  %18 = alloca [256 x i8], align 16
  %19 = alloca i32, align 4
  %20 = alloca i32, align 4
  %21 = alloca i32, align 4
  store i32 %0, ptr %8, align 4, !tbaa !4
  store i32 %1, ptr %9, align 4, !tbaa !4
  store i32 %2, ptr %10, align 4, !tbaa !4
  store i32 %3, ptr %11, align 4, !tbaa !4
  store ptr %4, ptr %12, align 8, !tbaa !28
  store ptr %5, ptr %13, align 8, !tbaa !30
  store ptr %6, ptr %14, align 8, !tbaa !32
  call void @llvm.lifetime.start.p0(i64 4, ptr %15) #5
  store i32 0, ptr %15, align 4, !tbaa !4
  call void @llvm.lifetime.start.p0(i64 8, ptr %16) #5
  call void @llvm.lifetime.start.p0(i64 256, ptr %17) #5
  call void @llvm.lifetime.start.p0(i64 256, ptr %18) #5
  call void @llvm.lifetime.start.p0(i64 4, ptr %19) #5
  call void @llvm.lifetime.start.p0(i64 4, ptr %20) #5
  store i32 0, ptr %20, align 4, !tbaa !4
  call void @llvm.lifetime.start.p0(i64 4, ptr %21) #5
  store i32 8, ptr %19, align 4, !tbaa !4
  %22 = load ptr, ptr %12, align 8, !tbaa !28
  %23 = load i32, ptr %8, align 4, !tbaa !4
  %24 = call i32 @rsa_setkey(ptr noundef %16, ptr noundef %22, i32 noundef %23)
  store i32 %24, ptr %20, align 4, !tbaa !4
  %25 = load ptr, ptr %13, align 8, !tbaa !30
  %26 = icmp ne ptr %25, null
  br i1 %26, label %27, label %30

27:                                               ; preds = %7
  %28 = load i32, ptr %20, align 4, !tbaa !4
  %29 = load ptr, ptr %13, align 8, !tbaa !30
  store i32 %28, ptr %29, align 4, !tbaa !4
  br label %30

30:                                               ; preds = %27, %7
  %31 = load i32, ptr %19, align 4, !tbaa !4
  %32 = getelementptr inbounds [256 x i8], ptr %18, i64 0, i64 0
  %33 = load ptr, ptr %16, align 8, !tbaa !8
  %34 = load i32, ptr %9, align 4, !tbaa !4
  %35 = call i32 @RSA_public_encrypt(i32 noundef %31, ptr noundef @test_rsa_simple.ptext_ex, ptr noundef %32, ptr noundef %33, i32 noundef %34)
  store i32 %35, ptr %21, align 4, !tbaa !4
  %36 = load i32, ptr %21, align 4, !tbaa !4
  %37 = load i32, ptr %20, align 4, !tbaa !4
  %38 = call i32 @test_int_eq(ptr noundef @.str.5, i32 noundef 253, ptr noundef @.str.6, ptr noundef @.str.7, i32 noundef %36, i32 noundef %37)
  %39 = icmp ne i32 %38, 0
  br i1 %39, label %41, label %40

40:                                               ; preds = %30
  br label %77

41:                                               ; preds = %30
  %42 = load i32, ptr %21, align 4, !tbaa !4
  %43 = getelementptr inbounds [256 x i8], ptr %18, i64 0, i64 0
  %44 = getelementptr inbounds [256 x i8], ptr %17, i64 0, i64 0
  %45 = load ptr, ptr %16, align 8, !tbaa !8
  %46 = load i32, ptr %10, align 4, !tbaa !4
  %47 = call i32 @RSA_private_decrypt(i32 noundef %42, ptr noundef %43, ptr noundef %44, ptr noundef %45, i32 noundef %46)
  store i32 %47, ptr %21, align 4, !tbaa !4
  %48 = load i32, ptr %11, align 4, !tbaa !4
  %49 = icmp ne i32 %48, 0
  br i1 %49, label %50, label %64

50:                                               ; preds = %41
  %51 = load i32, ptr %21, align 4, !tbaa !4
  %52 = call i32 @test_int_gt(ptr noundef @.str.5, i32 noundef 258, ptr noundef @.str.6, ptr noundef @.str.8, i32 noundef %51, i32 noundef 0)
  %53 = icmp ne i32 %52, 0
  br i1 %53, label %54, label %62

54:                                               ; preds = %50
  %55 = getelementptr inbounds [256 x i8], ptr %17, i64 0, i64 0
  %56 = load i32, ptr %21, align 4, !tbaa !4
  %57 = sext i32 %56 to i64
  %58 = load i32, ptr %19, align 4, !tbaa !4
  %59 = sext i32 %58 to i64
  %60 = call i32 @test_mem_eq(ptr noundef @.str.5, i32 noundef 258, ptr noundef @.str.9, ptr noundef @.str.10, ptr noundef %55, i64 noundef %57, ptr noundef @test_rsa_simple.ptext_ex, i64 noundef %59)
  %61 = icmp ne i32 %60, 0
  br i1 %61, label %63, label %62

62:                                               ; preds = %54, %50
  br label %77

63:                                               ; preds = %54
  br label %70

64:                                               ; preds = %41
  %65 = load i32, ptr %21, align 4, !tbaa !4
  %66 = call i32 @test_int_lt(ptr noundef @.str.5, i32 noundef 261, ptr noundef @.str.6, ptr noundef @.str.8, i32 noundef %65, i32 noundef 0)
  %67 = icmp ne i32 %66, 0
  br i1 %67, label %69, label %68

68:                                               ; preds = %64
  br label %77

69:                                               ; preds = %64
  br label %70

70:                                               ; preds = %69, %63
  store i32 1, ptr %15, align 4, !tbaa !4
  %71 = load ptr, ptr %14, align 8, !tbaa !32
  %72 = icmp ne ptr %71, null
  br i1 %72, label %73, label %76

73:                                               ; preds = %70
  %74 = load ptr, ptr %16, align 8, !tbaa !8
  %75 = load ptr, ptr %14, align 8, !tbaa !32
  store ptr %74, ptr %75, align 8, !tbaa !8
  store ptr null, ptr %16, align 8, !tbaa !8
  br label %76

76:                                               ; preds = %73, %70
  br label %77

77:                                               ; preds = %76, %68, %62, %40
  %78 = load ptr, ptr %16, align 8, !tbaa !8
  call void @RSA_free(ptr noundef %78)
  %79 = load i32, ptr %15, align 4, !tbaa !4
  call void @llvm.lifetime.end.p0(i64 4, ptr %21) #5
  call void @llvm.lifetime.end.p0(i64 4, ptr %20) #5
  call void @llvm.lifetime.end.p0(i64 4, ptr %19) #5
  call void @llvm.lifetime.end.p0(i64 256, ptr %18) #5
  call void @llvm.lifetime.end.p0(i64 256, ptr %17) #5
  call void @llvm.lifetime.end.p0(i64 8, ptr %16) #5
  call void @llvm.lifetime.end.p0(i64 4, ptr %15) #5
  ret i32 %79
}