; Function Attrs: nounwind uwtable
define internal fastcc range(i32 0, 2) i32 @test_rsa_simple(i32 noundef %0, i32 noundef range(i32 1, 5) %1, i32 noundef range(i32 1, 5) %2, ptr noundef writeonly captures(address_is_null) %3, ptr noundef writeonly captures(address_is_null) %4, ptr noundef writeonly captures(address_is_null) %5) unnamed_addr #0 {
  %7 = alloca [256 x i8], align 16
  %8 = alloca [256 x i8], align 16
  call void @llvm.lifetime.start.p0(i64 256, ptr nonnull %7) #5
  call void @llvm.lifetime.start.p0(i64 256, ptr nonnull %8) #5
  %9 = tail call ptr @RSA_new() #5
  %.not.i = icmp eq ptr %9, null
  br i1 %.not.i, label %rsa_setkey.exit, label %10

10:                                               ; preds = %6
  switch i32 %0, label %rsa_setkey.exit [
    i32 0, label %11
    i32 1, label %24
    i32 2, label %37
  ]

11:                                               ; preds = %10
  %12 = tail call ptr @BN_bin2bn(ptr noundef nonnull @key1.n, i32 noundef 65, ptr noundef null) #5
  %13 = tail call ptr @BN_bin2bn(ptr noundef nonnull @key1.e, i32 noundef 1, ptr noundef null) #5
  %14 = tail call ptr @BN_bin2bn(ptr noundef nonnull @key1.d, i32 noundef 64, ptr noundef null) #5
  %15 = tail call i32 @RSA_set0_key(ptr noundef nonnull %9, ptr noundef %12, ptr noundef %13, ptr noundef %14) #5
  %16 = tail call ptr @BN_bin2bn(ptr noundef nonnull @key1.p, i32 noundef 33, ptr noundef null) #5
  %17 = tail call ptr @BN_bin2bn(ptr noundef nonnull @key1.q, i32 noundef 33, ptr noundef null) #5
  %18 = tail call i32 @RSA_set0_factors(ptr noundef nonnull %9, ptr noundef %16, ptr noundef %17) #5
  %19 = tail call ptr @BN_bin2bn(ptr noundef nonnull @key1.dmp1, i32 noundef 32, ptr noundef null) #5
  %20 = tail call ptr @BN_bin2bn(ptr noundef nonnull @key1.dmq1, i32 noundef 33, ptr noundef null) #5
  %21 = tail call ptr @BN_bin2bn(ptr noundef nonnull @key1.iqmp, i32 noundef 32, ptr noundef null) #5
  %22 = tail call i32 @RSA_set0_crt_params(ptr noundef nonnull %9, ptr noundef %19, ptr noundef %20, ptr noundef %21) #5
  %.not.i.i = icmp eq ptr %3, null
  br i1 %.not.i.i, label %rsa_setkey.exit, label %23

23:                                               ; preds = %11
  tail call void @llvm.memcpy.p0.p0.i64(ptr noundef nonnull align 1 dereferenceable(64) %3, ptr noundef nonnull align 16 dereferenceable(64) @key1.ctext_ex, i64 64, i1 false)
  br label %rsa_setkey.exit

24:                                               ; preds = %10
  %25 = tail call ptr @BN_bin2bn(ptr noundef nonnull @key2.n, i32 noundef 51, ptr noundef null) #5
  %26 = tail call ptr @BN_bin2bn(ptr noundef nonnull @key2.e, i32 noundef 1, ptr noundef null) #5
  %27 = tail call ptr @BN_bin2bn(ptr noundef nonnull @key2.d, i32 noundef 50, ptr noundef null) #5
  %28 = tail call i32 @RSA_set0_key(ptr noundef nonnull %9, ptr noundef %25, ptr noundef %26, ptr noundef %27) #5
  %29 = tail call ptr @BN_bin2bn(ptr noundef nonnull @key2.p, i32 noundef 26, ptr noundef null) #5
  %30 = tail call ptr @BN_bin2bn(ptr noundef nonnull @key2.q, i32 noundef 26, ptr noundef null) #5
  %31 = tail call i32 @RSA_set0_factors(ptr noundef nonnull %9, ptr noundef %29, ptr noundef %30) #5
  %32 = tail call ptr @BN_bin2bn(ptr noundef nonnull @key2.dmp1, i32 noundef 26, ptr noundef null) #5
  %33 = tail call ptr @BN_bin2bn(ptr noundef nonnull @key2.dmq1, i32 noundef 26, ptr noundef null) #5
  %34 = tail call ptr @BN_bin2bn(ptr noundef nonnull @key2.iqmp, i32 noundef 26, ptr noundef null) #5
  %35 = tail call i32 @RSA_set0_crt_params(ptr noundef nonnull %9, ptr noundef %32, ptr noundef %33, ptr noundef %34) #5
  %.not.i10.i = icmp eq ptr %3, null
  br i1 %.not.i10.i, label %rsa_setkey.exit, label %36

36:                                               ; preds = %24
  tail call void @llvm.memcpy.p0.p0.i64(ptr noundef nonnull align 1 dereferenceable(50) %3, ptr noundef nonnull align 16 dereferenceable(50) @key2.ctext_ex, i64 50, i1 false)
  br label %rsa_setkey.exit

37:                                               ; preds = %10
  %38 = tail call ptr @BN_bin2bn(ptr noundef nonnull @key3.n, i32 noundef 129, ptr noundef null) #5
  %39 = tail call ptr @BN_bin2bn(ptr noundef nonnull @key3.e, i32 noundef 1, ptr noundef null) #5
  %40 = tail call ptr @BN_bin2bn(ptr noundef nonnull @key3.d, i32 noundef 129, ptr noundef null) #5
  %41 = tail call i32 @RSA_set0_key(ptr noundef nonnull %9, ptr noundef %38, ptr noundef %39, ptr noundef %40) #5
  %42 = tail call ptr @BN_bin2bn(ptr noundef nonnull @key3.p, i32 noundef 65, ptr noundef null) #5
  %43 = tail call ptr @BN_bin2bn(ptr noundef nonnull @key3.q, i32 noundef 65, ptr noundef null) #5
  %44 = tail call i32 @RSA_set0_factors(ptr noundef nonnull %9, ptr noundef %42, ptr noundef %43) #5
  %45 = tail call ptr @BN_bin2bn(ptr noundef nonnull @key3.dmp1, i32 noundef 64, ptr noundef null) #5
  %46 = tail call ptr @BN_bin2bn(ptr noundef nonnull @key3.dmq1, i32 noundef 64, ptr noundef null) #5
  %47 = tail call ptr @BN_bin2bn(ptr noundef nonnull @key3.iqmp, i32 noundef 65, ptr noundef null) #5
  %48 = tail call i32 @RSA_set0_crt_params(ptr noundef nonnull %9, ptr noundef %45, ptr noundef %46, ptr noundef %47) #5
  %.not.i11.i = icmp eq ptr %3, null
  br i1 %.not.i11.i, label %rsa_setkey.exit, label %49

49:                                               ; preds = %37
  tail call void @llvm.memcpy.p0.p0.i64(ptr noundef nonnull align 1 dereferenceable(128) %3, ptr noundef nonnull align 16 dereferenceable(128) @key3.ctext_ex, i64 128, i1 false)
  br label %rsa_setkey.exit

rsa_setkey.exit:                                  ; preds = %6, %10, %11, %23, %24, %36, %37, %49
  %.0.i = phi i32 [ 0, %10 ], [ 0, %6 ], [ 64, %11 ], [ 64, %23 ], [ 50, %24 ], [ 50, %36 ], [ 128, %37 ], [ 128, %49 ]
  %.not = icmp eq ptr %4, null
  br i1 %.not, label %51, label %50

50:                                               ; preds = %rsa_setkey.exit
  store i32 %.0.i, ptr %4, align 4, !tbaa !9
  br label %51

51:                                               ; preds = %50, %rsa_setkey.exit
  %52 = call i32 @RSA_public_encrypt(i32 noundef 8, ptr noundef nonnull @test_rsa_simple.ptext_ex, ptr noundef nonnull %8, ptr noundef %9, i32 noundef %1) #5
  %53 = call i32 @test_int_eq(ptr noundef nonnull @.str.5, i32 noundef 253, ptr noundef nonnull @.str.6, ptr noundef nonnull @.str.7, i32 noundef %52, i32 noundef %.0.i) #5
  %.not20 = icmp eq i32 %53, 0
  br i1 %.not20, label %62, label %54

54:                                               ; preds = %51
  %55 = call i32 @RSA_private_decrypt(i32 noundef %52, ptr noundef nonnull %8, ptr noundef nonnull %7, ptr noundef %9, i32 noundef %2) #5
  %56 = call i32 @test_int_gt(ptr noundef nonnull @.str.5, i32 noundef 258, ptr noundef nonnull @.str.6, ptr noundef nonnull @.str.8, i32 noundef %55, i32 noundef 0) #5
  %.not21 = icmp eq i32 %56, 0
  br i1 %.not21, label %62, label %57

57:                                               ; preds = %54
  %58 = sext i32 %55 to i64
  %59 = call i32 @test_mem_eq(ptr noundef nonnull @.str.5, i32 noundef 258, ptr noundef nonnull @.str.9, ptr noundef nonnull @.str.10, ptr noundef nonnull %7, i64 noundef %58, ptr noundef nonnull @test_rsa_simple.ptext_ex, i64 noundef 8) #5
  %.not22 = icmp eq i32 %59, 0
  br i1 %.not22, label %62, label %60

60:                                               ; preds = %57
  %.not23 = icmp eq ptr %5, null
  br i1 %.not23, label %62, label %61

61:                                               ; preds = %60
  store ptr %9, ptr %5, align 8, !tbaa !4
  br label %62

62:                                               ; preds = %60, %61, %54, %57, %51
  %.027 = phi ptr [ %9, %51 ], [ %9, %54 ], [ %9, %57 ], [ %9, %60 ], [ null, %61 ]
  %.0 = phi i32 [ 0, %51 ], [ 0, %54 ], [ 0, %57 ], [ 1, %60 ], [ 1, %61 ]
  call void @RSA_free(ptr noundef %.027) #5
  call void @llvm.lifetime.end.p0(i64 256, ptr nonnull %8) #5
  call void @llvm.lifetime.end.p0(i64 256, ptr nonnull %7) #5
  ret i32 %.0
}